; Function Attrs: nofree nounwind uwtable
define hidden void @PrepareMapToPalette(ptr noundef readonly captures(none) %0, i32 noundef %1, ptr noundef %2, ptr noundef writeonly captures(none) %3) local_unnamed_addr #2 {
  %5 = zext i32 %1 to i64
  %6 = shl nuw nsw i64 %5, 2
  tail call void @llvm.memcpy.p0.p0.i64(ptr align 4 %2, ptr align 4 %0, i64 %6, i1 false)
  tail call void @qsort(ptr noundef %2, i64 noundef %5, i64 noundef 4, ptr noundef nonnull @PaletteCompareColorsForQsort) #10
  %.not = icmp eq i32 %1, 0
  br i1 %.not, label %._crit_edge, label %.lr.ph

.lr.ph:                                           ; preds = %4, %SearchColorNoIdx.exit
  %indvars.iv = phi i64 [ %indvars.iv.next, %SearchColorNoIdx.exit ], [ 0, %4 ]
  %7 = getelementptr inbounds nuw i32, ptr %0, i64 %indvars.iv
  %8 = load i32, ptr %7, align 4, !tbaa !3
  %9 = load i32, ptr %2, align 4, !tbaa !3
  %10 = icmp eq i32 %9, %8
  br i1 %10, label %SearchColorNoIdx.exit, label %.preheader.i

.preheader.i:                                     ; preds = %.lr.ph, %.preheader.i
  %.021.i = phi i32 [ %..021.i, %.preheader.i ], [ 0, %.lr.ph ]
  %.018.i = phi i32 [ %.018..i, %.preheader.i ], [ %1, %.lr.ph ]
  %11 = add nsw i32 %.018.i, %.021.i
  %12 = ashr i32 %11, 1
  %13 = sext i32 %12 to i64
  %14 = getelementptr inbounds i32, ptr %2, i64 %13
  %15 = load i32, ptr %14, align 4, !tbaa !3
  %.not.i = icmp eq i32 %15, %8
  %16 = icmp ult i32 %15, %8
  %..021.i = select i1 %16, i32 %12, i32 %.021.i
  %.018..i = select i1 %16, i32 %.018.i, i32 %12
  br i1 %.not.i, label %SearchColorNoIdx.exit.loopexit, label %.preheader.i

SearchColorNoIdx.exit.loopexit:                   ; preds = %.preheader.i
  %17 = sext i32 %12 to i64
  br label %SearchColorNoIdx.exit

SearchColorNoIdx.exit:                            ; preds = %.lr.ph, %SearchColorNoIdx.exit.loopexit
  %.0.i = phi i64 [ %17, %SearchColorNoIdx.exit.loopexit ], [ 0, %.lr.ph ]
  %18 = getelementptr inbounds i32, ptr %3, i64 %.0.i
  %19 = trunc nuw i64 %indvars.iv to i32
  store i32 %19, ptr %18, align 4, !tbaa !3
  %indvars.iv.next = add nuw nsw i64 %indvars.iv, 1
  %exitcond.not = icmp eq i64 %indvars.iv.next, %5
  br i1 %exitcond.not, label %._crit_edge, label %.lr.ph, !llvm.loop !7

._crit_edge:                                      ; preds = %SearchColorNoIdx.exit, %4
  ret void
}